Certificate:
    Data:
        Version: 3 (0x2)
        Serial Number:
            c0:81:69:6e:0c:68:f3:10
    Signature Algorithm: sha256WithRSAEncryption
        Issuer: C=XX, L=Default City, O=Bitcoin.com, OU=Bitcoin Card API
        Validity
            Not Before: Jan  2 19:52:33 2020 GMT
            Not After : Feb  1 19:52:33 2020 GMT
        Subject: C=XX, L=Default City, O=Bitcoin.com, OU=Bitcoin Card API
        Subject Public Key Info:
            Public Key Algorithm: rsaEncryption
                Public-Key: (2048 bit)
                Modulus:
                    00:b3:7c:33:00:88:1f:77:ca:5c:95:42:b5:93:32:
                    9d:7c:6f:f1:12:f8:d2:fa:1c:c2:63:d2:c9:7d:a1:
                    ef:f4:92:94:a9:25:af:62:27:b7:83:9b:72:be:dc:
                    1f:1c:04:55:ee:29:7a:f6:3a:f2:ee:f3:d1:10:40:
                    89:85:ac:73:c6:96:28:8e:59:97:46:8b:b0:a5:be:
                    4e:c6:fa:57:37:84:b7:d3:53:37:1c:13:01:a0:ca:
                    9a:80:3c:be:fd:c5:4a:80:f3:75:69:0d:fd:77:a9:
                    75:ba:ad:fc:36:80:89:19:80:03:9f:8e:47:76:d8:
                    53:ba:19:aa:80:e7:1f:02:7b:ba:6d:df:d9:0f:48:
                    a7:25:62:61:32:6d:2a:e8:ed:d9:fe:c5:b0:fa:17:
                    a0:8c:21:23:33:ba:42:24:f2:d6:bf:f9:dc:7a:fc:
                    bc:7c:bd:04:ca:6a:20:f0:79:7c:84:6f:20:96:3d:
                    5d:a0:a8:c6:61:07:b8:23:3d:ce:34:65:71:04:7a:
                    1f:dd:bf:73:fd:9b:35:f7:e1:91:bd:7c:b6:f8:50:
                    6a:3a:92:a8:26:2a:ce:43:b8:cb:69:b7:70:d2:f2:
                    82:e4:a8:0e:c4:05:29:f0:62:8a:2e:25:b5:e8:b9:
                    b4:d6:d7:fd:cb:b0:74:b8:d9:46:b7:d2:69:c9:e5:
                    d1:59
                Exponent: 65537 (0x10001)
        X509v3 extensions:
            X509v3 Subject Key Identifier: 
                59:E1:53:D0:36:85:0F:06:3C:65:90:09:D0:7D:54:1A:5B:07:8F:29
            X509v3 Authority Key Identifier: 
                keyid:59:E1:53:D0:36:85:0F:06:3C:65:90:09:D0:7D:54:1A:5B:07:8F:29

            X509v3 Basic Constraints: 
                CA:TRUE
    Signature Algorithm: sha256WithRSAEncryption
         60:cf:8b:b9:7e:41:b1:c4:bf:45:fa:95:7a:4d:cd:f3:ca:3f:
         d5:39:52:3e:5b:26:e6:d9:d8:0d:b3:d4:b3:78:5c:38:93:64:
         41:30:60:49:44:e5:36:2c:a8:32:00:3d:be:30:08:49:51:5d:
         05:74:85:6f:43:90:26:71:08:07:0d:ac:e7:fe:c3:2e:25:48:
         be:af:05:a9:41:ed:76:e2:2c:dc:c8:cb:fe:1b:65:6c:7e:a3:
         7c:69:7e:74:f5:3f:30:2f:ec:da:d9:2c:75:c0:18:8e:a6:b1:
         38:d7:d9:b1:7b:b2:df:f4:e7:bc:20:52:91:9b:65:60:15:1d:
         e1:36:2c:57:9f:34:7e:7e:d6:de:98:1f:55:89:85:74:40:74:
         56:1a:d0:4f:9a:31:47:fc:b4:ce:81:65:4f:4c:e6:9c:43:da:
         62:63:3a:36:4b:f5:ec:0d:82:f2:4c:54:09:cc:91:a9:c4:4a:
         59:e6:4b:ea:a3:67:45:3a:b6:2a:d7:91:1c:cb:97:56:f5:80:
         9b:44:f0:f9:e8:07:07:ec:36:9d:9f:e2:68:8b:f2:64:25:2c:
         06:50:a1:13:e2:3d:73:2f:08:e4:01:7a:1a:ac:7f:5b:38:75:
         3f:fb:88:2d:db:d0:d4:b1:dc:d4:12:cb:5a:6e:29:87:ce:cd:
         f2:93:e4:c5
-----BEGIN CERTIFICATE-----
MIIDfTCCAmWgAwIBAgIJAMCBaW4MaPMQMA0GCSqGSIb3DQEBCwUAMFUxCzAJBgNV
BAYTAlhYMRUwEwYDVQQHDAxEZWZhdWx0IENpdHkxFDASBgNVBAoMC0JpdGNvaW4u
Y29tMRkwFwYDVQQLDBBCaXRjb2luIENhcmQgQVBJMB4XDTIwMDEwMjE5NTIzM1oX
DTIwMDIwMTE5NTIzM1owVTELMAkGA1UEBhMCWFgxFTATBgNVBAcMDERlZmF1bHQg
Q2l0eTEUMBIGA1UECgwLQml0Y29pbi5jb20xGTAXBgNVBAsMEEJpdGNvaW4gQ2Fy
ZCBBUEkwggEiMA0GCSqGSIb3DQEBAQUAA4IBDwAwggEKAoIBAQCzfDMAiB93ylyV
QrWTMp18b/ES+NL6HMJj0sl9oe/0kpSpJa9iJ7eDm3K+3B8cBFXuKXr2OvLu89EQ
QImFrHPGliiOWZdGi7Clvk7G+lc3hLfTUzccEwGgypqAPL79xUqA83VpDf13qXW6
rfw2gIkZgAOfjkd22FO6GaqA5x8Ce7pt39kPSKclYmEybSro7dn+xbD6F6CMISMz
ukIk8ta/+dx6/Lx8vQTKaiDweXyEbyCWPV2gqMZhB7gjPc40ZXEEeh/dv3P9mzX3
4ZG9fLb4UGo6kqgmKs5DuMtpt3DS8oLkqA7EBSnwYoouJbXoubTW1/3LsHS42Ua3
0mnJ5dFZAgMBAAGjUDBOMB0GA1UdDgQWBBRZ4VPQNoUPBjxlkAnQfVQaWwePKTAf
BgNVHSMEGDAWgBRZ4VPQNoUPBjxlkAnQfVQaWwePKTAMBgNVHRMEBTADAQH/MA0G
CSqGSIb3DQEBCwUAA4IBAQBgz4u5fkGxxL9F+pV6Tc3zyj/VOVI+Wybm2dgNs9Sz
eFw4k2RBMGBJROU2LKgyAD2+MAhJUV0FdIVvQ5AmcQgHDazn/sMuJUi+rwWpQe12
4izcyMv+G2VsfqN8aX509T8wL+za2Sx1wBiOprE419mxe7Lf9Oe8IFKRm2VgFR3h
NixXnzR+ftbemB9ViYV0QHRWGtBPmjFH/LTOgWVPTOacQ9piYzo2S/XsDYLyTFQJ
zJGpxEpZ5kvqo2dFOrYq15Ecy5dW9YCbRPD56AcH7Dadn+Joi/JkJSwGUKET4j1z
LwjkAXoarH9bOHU/+4gt29DUsdzUEstabimHzs3yk+TF
-----END CERTIFICATE-----
